target datalayout = "e-m:e-p270:32:32-p271:32:32-p272:64:64-i64:64-i128:128-f80:128-n8:16:32:64-S128"
target triple = "x86_64-pc-linux-gnu"

%union.pthread_mutex_t = type { %struct.__pthread_mutex_s }
%struct.__pthread_mutex_s = type { i32, i32, i32, i32, i32, i16, i16, %struct.__pthread_internal_list }
%struct.__pthread_internal_list = type { ptr, ptr }
%struct.uv__work = type { ptr, ptr, ptr, [2 x ptr] }
%struct.uv_loop_s = type { ptr, i32, [2 x ptr], %union.anon, ptr, i32, i64, i32, [2 x ptr], [2 x ptr], ptr, i32, i32, [2 x ptr], %union.pthread_mutex_t, %struct.uv_async_s, %union.pthread_rwlock_t, ptr, [2 x ptr], [2 x ptr], [2 x ptr], [2 x ptr], [2 x ptr], ptr, %struct.uv__io_s, i32, %struct.anon.1, i64, i64, [2 x i32], %struct.uv__io_s, %struct.uv_signal_s, i32, %struct.uv__io_s, ptr, i32 }
%union.anon = type { ptr }
%struct.uv_async_s = type { ptr, ptr, i32, ptr, [2 x ptr], %union.anon.0, ptr, i32, ptr, [2 x ptr], i32 }
%union.anon.0 = type { [4 x ptr] }
%union.pthread_rwlock_t = type { %struct.__pthread_rwlock_arch_t }
%struct.__pthread_rwlock_arch_t = type { i32, i32, i32, i32, i32, i32, i32, i32, i8, [7 x i8], i64, i32 }
%struct.anon.1 = type { ptr, i32 }
%struct.uv_signal_s = type { ptr, ptr, i32, ptr, [2 x ptr], %union.anon.2, ptr, i32, ptr, i32, %struct.anon.3, i32, i32 }
%union.anon.2 = type { [4 x ptr] }
%struct.anon.3 = type { ptr, ptr, ptr, i32 }
%struct.uv__io_s = type { ptr, [2 x ptr], [2 x ptr], i32, i32, i32 }

; Function Attrs: nounwind uwtable
define dso_local void @uv__work_done(ptr noundef %0) #0 {
  %2 = alloca ptr, align 8
  %3 = alloca ptr, align 8
  %4 = alloca ptr, align 8
  %5 = alloca ptr, align 8
  %6 = alloca [2 x ptr], align 16
  %7 = alloca i32, align 4
  %8 = alloca ptr, align 8
  store ptr %0, ptr %2, align 8, !tbaa !22
  call void @llvm.lifetime.start.p0(i64 8, ptr %3) #7
  call void @llvm.lifetime.start.p0(i64 8, ptr %4) #7
  call void @llvm.lifetime.start.p0(i64 8, ptr %5) #7
  call void @llvm.lifetime.start.p0(i64 16, ptr %6) #7
  call void @llvm.lifetime.start.p0(i64 4, ptr %7) #7
  %9 = load ptr, ptr %2, align 8, !tbaa !22
  %10 = getelementptr inbounds i8, ptr %9, i64 -176
  store ptr %10, ptr %4, align 8, !tbaa !14
  %11 = load ptr, ptr %4, align 8, !tbaa !14
  %12 = getelementptr inbounds nuw %struct.uv_loop_s, ptr %11, i32 0, i32 14
  call void @uv_mutex_lock(ptr noundef %12)
  br label %13

13:                                               ; preds = %1
  %14 = load ptr, ptr %4, align 8, !tbaa !14
  %15 = getelementptr inbounds nuw %struct.uv_loop_s, ptr %14, i32 0, i32 13
  %16 = load ptr, ptr %4, align 8, !tbaa !14
  %17 = getelementptr inbounds nuw %struct.uv_loop_s, ptr %16, i32 0, i32 13
  %18 = getelementptr inbounds [2 x ptr], ptr %17, i64 0, i64 0
  %19 = load ptr, ptr %18, align 8, !tbaa !13
  %20 = icmp eq ptr %15, %19
  br i1 %20, label %21, label %27

21:                                               ; preds = %13
  br label %22

22:                                               ; preds = %21
  %23 = getelementptr inbounds [2 x ptr], ptr %6, i64 0, i64 0
  store ptr %6, ptr %23, align 16, !tbaa !13
  %24 = getelementptr inbounds [2 x ptr], ptr %6, i64 0, i64 1
  store ptr %6, ptr %24, align 8, !tbaa !13
  br label %25

25:                                               ; preds = %22
  br label %26

26:                                               ; preds = %25
  br label %60

27:                                               ; preds = %13
  call void @llvm.lifetime.start.p0(i64 8, ptr %8) #7
  %28 = load ptr, ptr %4, align 8, !tbaa !14
  %29 = getelementptr inbounds nuw %struct.uv_loop_s, ptr %28, i32 0, i32 13
  %30 = getelementptr inbounds [2 x ptr], ptr %29, i64 0, i64 0
  %31 = load ptr, ptr %30, align 8, !tbaa !13
  store ptr %31, ptr %8, align 8, !tbaa !13
  br label %32

32:                                               ; preds = %27
  %33 = load ptr, ptr %4, align 8, !tbaa !14
  %34 = getelementptr inbounds nuw %struct.uv_loop_s, ptr %33, i32 0, i32 13
  %35 = getelementptr inbounds [2 x ptr], ptr %34, i64 0, i64 1
  %36 = load ptr, ptr %35, align 8, !tbaa !13
  %37 = getelementptr inbounds [2 x ptr], ptr %6, i64 0, i64 1
  store ptr %36, ptr %37, align 8, !tbaa !13
  %38 = getelementptr inbounds [2 x ptr], ptr %6, i64 0, i64 1
  %39 = load ptr, ptr %38, align 8, !tbaa !13
  %40 = getelementptr inbounds [2 x ptr], ptr %39, i64 0, i64 0
  store ptr %6, ptr %40, align 8, !tbaa !13
  %41 = load ptr, ptr %8, align 8, !tbaa !13
  %42 = getelementptr inbounds [2 x ptr], ptr %6, i64 0, i64 0
  store ptr %41, ptr %42, align 16, !tbaa !13
  %43 = load ptr, ptr %8, align 8, !tbaa !13
  %44 = getelementptr inbounds [2 x ptr], ptr %43, i64 0, i64 1
  %45 = load ptr, ptr %44, align 8, !tbaa !13
  %46 = load ptr, ptr %4, align 8, !tbaa !14
  %47 = getelementptr inbounds nuw %struct.uv_loop_s, ptr %46, i32 0, i32 13
  %48 = getelementptr inbounds [2 x ptr], ptr %47, i64 0, i64 1
  store ptr %45, ptr %48, align 8, !tbaa !13
  %49 = load ptr, ptr %4, align 8, !tbaa !14
  %50 = getelementptr inbounds nuw %struct.uv_loop_s, ptr %49, i32 0, i32 13
  %51 = load ptr, ptr %4, align 8, !tbaa !14
  %52 = getelementptr inbounds nuw %struct.uv_loop_s, ptr %51, i32 0, i32 13
  %53 = getelementptr inbounds [2 x ptr], ptr %52, i64 0, i64 1
  %54 = load ptr, ptr %53, align 8, !tbaa !13
  %55 = getelementptr inbounds [2 x ptr], ptr %54, i64 0, i64 0
  store ptr %50, ptr %55, align 8, !tbaa !13
  %56 = load ptr, ptr %8, align 8, !tbaa !13
  %57 = getelementptr inbounds [2 x ptr], ptr %56, i64 0, i64 1
  store ptr %6, ptr %57, align 8, !tbaa !13
  br label %58

58:                                               ; preds = %32
  br label %59

59:                                               ; preds = %58
  call void @llvm.lifetime.end.p0(i64 8, ptr %8) #7
  br label %60

60:                                               ; preds = %59, %26
  br label %61

61:                                               ; preds = %60
  br label %62

62:                                               ; preds = %61
  %63 = load ptr, ptr %4, align 8, !tbaa !14
  %64 = getelementptr inbounds nuw %struct.uv_loop_s, ptr %63, i32 0, i32 14
  call void @uv_mutex_unlock(ptr noundef %64)
  br label %65

65:                                               ; preds = %89, %62
  %66 = getelementptr inbounds [2 x ptr], ptr %6, i64 0, i64 0
  %67 = load ptr, ptr %66, align 16, !tbaa !13
  %68 = icmp eq ptr %6, %67
  %69 = xor i1 %68, true
  br i1 %69, label %70, label %102

70:                                               ; preds = %65
  %71 = getelementptr inbounds [2 x ptr], ptr %6, i64 0, i64 0
  %72 = load ptr, ptr %71, align 16, !tbaa !13
  store ptr %72, ptr %5, align 8, !tbaa !13
  br label %73

73:                                               ; preds = %70
  %74 = load ptr, ptr %5, align 8, !tbaa !13
  %75 = getelementptr inbounds [2 x ptr], ptr %74, i64 0, i64 0
  %76 = load ptr, ptr %75, align 8, !tbaa !13
  %77 = load ptr, ptr %5, align 8, !tbaa !13
  %78 = getelementptr inbounds [2 x ptr], ptr %77, i64 0, i64 1
  %79 = load ptr, ptr %78, align 8, !tbaa !13
  %80 = getelementptr inbounds [2 x ptr], ptr %79, i64 0, i64 0
  store ptr %76, ptr %80, align 8, !tbaa !13
  %81 = load ptr, ptr %5, align 8, !tbaa !13
  %82 = getelementptr inbounds [2 x ptr], ptr %81, i64 0, i64 1
  %83 = load ptr, ptr %82, align 8, !tbaa !13
  %84 = load ptr, ptr %5, align 8, !tbaa !13
  %85 = getelementptr inbounds [2 x ptr], ptr %84, i64 0, i64 0
  %86 = load ptr, ptr %85, align 8, !tbaa !13
  %87 = getelementptr inbounds [2 x ptr], ptr %86, i64 0, i64 1
  store ptr %83, ptr %87, align 8, !tbaa !13
  br label %88

88:                                               ; preds = %73
  br label %89

89:                                               ; preds = %88
  %90 = load ptr, ptr %5, align 8, !tbaa !13
  %91 = getelementptr inbounds i8, ptr %90, i64 -24
  store ptr %91, ptr %3, align 8, !tbaa !16
  %92 = load ptr, ptr %3, align 8, !tbaa !16
  %93 = getelementptr inbounds nuw %struct.uv__work, ptr %92, i32 0, i32 0
  %94 = load ptr, ptr %93, align 8, !tbaa !20
  %95 = icmp eq ptr %94, @uv__cancelled
  %96 = select i1 %95, i32 -125, i32 0
  store i32 %96, ptr %7, align 4, !tbaa !4
  %97 = load ptr, ptr %3, align 8, !tbaa !16
  %98 = getelementptr inbounds nuw %struct.uv__work, ptr %97, i32 0, i32 1
  %99 = load ptr, ptr %98, align 8, !tbaa !21
  %100 = load ptr, ptr %3, align 8, !tbaa !16
  %101 = load i32, ptr %7, align 4, !tbaa !4
  call void %99(ptr noundef %100, i32 noundef %101)
  br label %65, !llvm.loop !24

102:                                              ; preds = %65
  call void @llvm.lifetime.end.p0(i64 4, ptr %7) #7
  call void @llvm.lifetime.end.p0(i64 16, ptr %6) #7
  call void @llvm.lifetime.end.p0(i64 8, ptr %5) #7
  call void @llvm.lifetime.end.p0(i64 8, ptr %4) #7
  call void @llvm.lifetime.end.p0(i64 8, ptr %3) #7
  ret void
}