; Function Attrs: nounwind uwtable
define dso_local void @uv__work_done(ptr noundef %0) local_unnamed_addr #0 {
  %2 = alloca [2 x ptr], align 16
  call void @llvm.lifetime.start.p0(i64 16, ptr nonnull %2) #9
  %3 = getelementptr inbounds i8, ptr %0, i64 -40
  tail call void @uv_mutex_lock(ptr noundef nonnull %3) #9
  %4 = getelementptr inbounds i8, ptr %0, i64 -56
  %5 = load ptr, ptr %4, align 8, !tbaa !8
  %6 = icmp eq ptr %4, %5
  br i1 %6, label %7, label %9

7:                                                ; preds = %1
  store ptr %2, ptr %2, align 16, !tbaa !8
  %8 = getelementptr inbounds nuw i8, ptr %2, i64 8
  store ptr %2, ptr %8, align 8, !tbaa !8
  br label %15

9:                                                ; preds = %1
  %10 = getelementptr inbounds i8, ptr %0, i64 -48
  %11 = load ptr, ptr %10, align 8, !tbaa !8
  %12 = getelementptr inbounds nuw i8, ptr %2, i64 8
  store ptr %11, ptr %12, align 8, !tbaa !8
  store ptr %2, ptr %11, align 8, !tbaa !8
  store ptr %5, ptr %2, align 16, !tbaa !8
  %13 = getelementptr inbounds nuw i8, ptr %5, i64 8
  %14 = load ptr, ptr %13, align 8, !tbaa !8
  store ptr %14, ptr %10, align 8, !tbaa !8
  store ptr %4, ptr %14, align 8, !tbaa !8
  store ptr %2, ptr %13, align 8, !tbaa !8
  br label %15

15:                                               ; preds = %9, %7
  call void @uv_mutex_unlock(ptr noundef nonnull %3) #9
  %16 = load ptr, ptr %2, align 16, !tbaa !8
  %.not22 = icmp eq ptr %2, %16
  br i1 %.not22, label %._crit_edge, label %.lr.ph

.lr.ph:                                           ; preds = %15, %.lr.ph
  %17 = phi ptr [ %29, %.lr.ph ], [ %16, %15 ]
  %18 = load ptr, ptr %17, align 8, !tbaa !8
  %19 = getelementptr inbounds nuw i8, ptr %17, i64 8
  %20 = load ptr, ptr %19, align 8, !tbaa !8
  store ptr %18, ptr %20, align 8, !tbaa !8
  %21 = load ptr, ptr %19, align 8, !tbaa !8
  %22 = getelementptr inbounds nuw i8, ptr %18, i64 8
  store ptr %21, ptr %22, align 8, !tbaa !8
  %23 = getelementptr inbounds i8, ptr %17, i64 -24
  %24 = load ptr, ptr %23, align 8, !tbaa !17
  %25 = icmp eq ptr %24, @uv__cancelled
  %26 = select i1 %25, i32 -125, i32 0
  %27 = getelementptr inbounds i8, ptr %17, i64 -16
  %28 = load ptr, ptr %27, align 8, !tbaa !18
  call void %28(ptr noundef nonnull %23, i32 noundef %26) #9
  %29 = load ptr, ptr %2, align 16, !tbaa !8
  %.not = icmp eq ptr %2, %29
  br i1 %.not, label %._crit_edge, label %.lr.ph, !llvm.loop !21

._crit_edge:                                      ; preds = %.lr.ph, %15
  call void @llvm.lifetime.end.p0(i64 16, ptr nonnull %2) #9
  ret void
}